target datalayout = "e-m:e-p270:32:32-p271:32:32-p272:64:64-i64:64-i128:128-f80:128-n8:16:32:64-S128"
target triple = "x86_64-pc-linux-gnu"

%struct._sapi_module_struct = type { ptr, ptr, ptr, ptr, ptr, ptr, ptr, ptr, ptr, ptr, ptr, ptr, ptr, ptr, ptr, ptr, ptr, ptr, ptr, ptr, ptr, ptr, ptr, ptr, i32, i32, ptr, ptr, ptr, ptr, ptr, ptr, i32, ptr, ptr, ptr }

@php_build_date = hidden constant [21 x i8] c"Feb 18 2025 11:45:42\00", align 16
@.str = private unnamed_addr constant [10 x i8] c"8.5.0-dev\00", align 1
@.str.1 = private unnamed_addr constant [62 x i8] c"PHP %s (%s) (built: %s) (%s)\0ACopyright (c) The PHP Group\0A%s%s\00", align 1
@.str.2 = private unnamed_addr constant [4 x i8] c"NTS\00", align 1
@.str.3 = private unnamed_addr constant [1 x i8] zeroinitializer, align 1

; Function Attrs: nounwind uwtable
define dso_local ptr @php_get_version(ptr noundef %0) #1 {
  %2 = alloca ptr, align 8
  %3 = alloca ptr, align 8
  store ptr %0, ptr %2, align 8, !tbaa !4
  call void @llvm.lifetime.start.p0(i64 8, ptr %3) #18
  %4 = load ptr, ptr %2, align 8, !tbaa !4
  %5 = getelementptr inbounds nuw %struct._sapi_module_struct, ptr %4, i32 0, i32 0
  %6 = load ptr, ptr %5, align 8, !tbaa !9
  %7 = call ptr @get_zend_version()
  %8 = call i64 (ptr, i64, ptr, ...) @zend_spprintf(ptr noundef %3, i64 noundef 0, ptr noundef @.str.1, ptr noundef @.str, ptr noundef %6, ptr noundef @php_build_date, ptr noundef @.str.2, ptr noundef @.str.3, ptr noundef %7)
  %9 = load ptr, ptr %3, align 8, !tbaa !14
  call void @llvm.lifetime.end.p0(i64 8, ptr %3) #18
  ret ptr %9
}