; Function Attrs: nounwind uwtable
define dso_local ptr @php_get_version(ptr noundef readonly captures(none) %0) local_unnamed_addr #2 {
  %2 = alloca ptr, align 8
  call void @llvm.lifetime.start.p0(i64 8, ptr nonnull %2) #28
  %3 = load ptr, ptr %0, align 8, !tbaa !4
  %4 = tail call ptr @get_zend_version() #28
  %5 = call i64 (ptr, i64, ptr, ...) @zend_spprintf(ptr noundef nonnull %2, i64 noundef 0, ptr noundef nonnull @.str.1, ptr noundef nonnull @.str, ptr noundef %3, ptr noundef nonnull @php_build_date, ptr noundef nonnull @.str.2, ptr noundef nonnull @.str.3, ptr noundef %4) #28
  %6 = load ptr, ptr %2, align 8, !tbaa !12
  call void @llvm.lifetime.end.p0(i64 8, ptr nonnull %2) #28
  ret ptr %6
}